
_sleeper:     file format elf32-i386


Disassembly of section .text:

00000000 <stoi>:
#include "stat.h"
#include "user.h"


int stoi(int argc, char *argv[])
{
   0:	55                   	push   %ebp
   1:	89 e5                	mov    %esp,%ebp
   3:	57                   	push   %edi
   4:	56                   	push   %esi
   5:	53                   	push   %ebx
   6:	83 ec 1c             	sub    $0x1c,%esp
	int i;
	int number = 0;
	i=0;
	char *string_input;
	string_input = argv[1];
   9:	8b 45 0c             	mov    0xc(%ebp),%eax
   c:	8b 50 04             	mov    0x4(%eax),%edx
	while(string_input[i] != '\0'){
   f:	0f be 02             	movsbl (%edx),%eax
  12:	8d 48 d0             	lea    -0x30(%eax),%ecx
  15:	80 f9 09             	cmp    $0x9,%cl
  18:	77 45                	ja     5f <stoi+0x5f>
  1a:	83 c2 01             	add    $0x1,%edx


int stoi(int argc, char *argv[])
{
	int i;
	int number = 0;
  1d:	31 db                	xor    %ebx,%ebx
  1f:	90                   	nop
	i=0;
	char *string_input;
	string_input = argv[1];
	while(string_input[i] != '\0'){
        if(string_input[i] >= '0' && string_input[i] <= '9'){
            number = number*10 + string_input[i] - '0';
  20:	8d 0c 9b             	lea    (%ebx,%ebx,4),%ecx
  23:	83 c2 01             	add    $0x1,%edx
  26:	8d 3c 48             	lea    (%eax,%ecx,2),%edi
	int i;
	int number = 0;
	i=0;
	char *string_input;
	string_input = argv[1];
	while(string_input[i] != '\0'){
  29:	0f be 42 ff          	movsbl -0x1(%edx),%eax
        if(string_input[i] >= '0' && string_input[i] <= '9'){
            number = number*10 + string_input[i] - '0';
  2d:	8d 5f d0             	lea    -0x30(%edi),%ebx
	int i;
	int number = 0;
	i=0;
	char *string_input;
	string_input = argv[1];
	while(string_input[i] != '\0'){
  30:	8d 70 d0             	lea    -0x30(%eax),%esi
  33:	89 f1                	mov    %esi,%ecx
  35:	80 f9 09             	cmp    $0x9,%cl
  38:	76 e6                	jbe    20 <stoi+0x20>
  3a:	8d 4f d1             	lea    -0x2f(%edi),%ecx
        } else {
            break;
        }
        i++;
    }
	printf(1,"%d",number+1);
  3d:	89 4c 24 08          	mov    %ecx,0x8(%esp)
  41:	c7 44 24 04 20 07 00 	movl   $0x720,0x4(%esp)
  48:	00 
  49:	c7 04 24 01 00 00 00 	movl   $0x1,(%esp)
  50:	e8 ab 03 00 00       	call   400 <printf>
	return number;
	exit();
	
}
  55:	83 c4 1c             	add    $0x1c,%esp
  58:	89 d8                	mov    %ebx,%eax
  5a:	5b                   	pop    %ebx
  5b:	5e                   	pop    %esi
  5c:	5f                   	pop    %edi
  5d:	5d                   	pop    %ebp
  5e:	c3                   	ret    
	int i;
	int number = 0;
	i=0;
	char *string_input;
	string_input = argv[1];
	while(string_input[i] != '\0'){
  5f:	b9 01 00 00 00       	mov    $0x1,%ecx


int stoi(int argc, char *argv[])
{
	int i;
	int number = 0;
  64:	31 db                	xor    %ebx,%ebx
  66:	eb d5                	jmp    3d <stoi+0x3d>
  68:	66 90                	xchg   %ax,%ax
  6a:	66 90                	xchg   %ax,%ax
  6c:	66 90                	xchg   %ax,%ax
  6e:	66 90                	xchg   %ax,%ax

00000070 <strcpy>:
  70:	55                   	push   %ebp
  71:	89 e5                	mov    %esp,%ebp
  73:	53                   	push   %ebx
  74:	8b 45 08             	mov    0x8(%ebp),%eax
  77:	8b 4d 0c             	mov    0xc(%ebp),%ecx
  7a:	89 c2                	mov    %eax,%edx
  7c:	8d 74 26 00          	lea    0x0(%esi,%eiz,1),%esi
  80:	83 c1 01             	add    $0x1,%ecx
  83:	0f b6 59 ff          	movzbl -0x1(%ecx),%ebx
  87:	83 c2 01             	add    $0x1,%edx
  8a:	84 db                	test   %bl,%bl
  8c:	88 5a ff             	mov    %bl,-0x1(%edx)
  8f:	75 ef                	jne    80 <strcpy+0x10>
  91:	5b                   	pop    %ebx
  92:	5d                   	pop    %ebp
  93:	c3                   	ret    
  94:	8d b6 00 00 00 00    	lea    0x0(%esi),%esi
  9a:	8d bf 00 00 00 00    	lea    0x0(%edi),%edi

000000a0 <strcmp>:
  a0:	55                   	push   %ebp
  a1:	89 e5                	mov    %esp,%ebp
  a3:	56                   	push   %esi
  a4:	53                   	push   %ebx
  a5:	8b 55 08             	mov    0x8(%ebp),%edx
  a8:	8b 4d 0c             	mov    0xc(%ebp),%ecx
  ab:	0f b6 02             	movzbl (%edx),%eax
  ae:	0f b6 19             	movzbl (%ecx),%ebx
  b1:	84 c0                	test   %al,%al
  b3:	75 1e                	jne    d3 <strcmp+0x33>
  b5:	eb 29                	jmp    e0 <strcmp+0x40>
  b7:	89 f6                	mov    %esi,%esi
  b9:	8d bc 27 00 00 00 00 	lea    0x0(%edi,%eiz,1),%edi
  c0:	83 c2 01             	add    $0x1,%edx
  c3:	0f b6 02             	movzbl (%edx),%eax
  c6:	8d 71 01             	lea    0x1(%ecx),%esi
  c9:	0f b6 59 01          	movzbl 0x1(%ecx),%ebx
  cd:	84 c0                	test   %al,%al
  cf:	74 0f                	je     e0 <strcmp+0x40>
  d1:	89 f1                	mov    %esi,%ecx
  d3:	38 d8                	cmp    %bl,%al
  d5:	74 e9                	je     c0 <strcmp+0x20>
  d7:	29 d8                	sub    %ebx,%eax
  d9:	5b                   	pop    %ebx
  da:	5e                   	pop    %esi
  db:	5d                   	pop    %ebp
  dc:	c3                   	ret    
  dd:	8d 76 00             	lea    0x0(%esi),%esi
  e0:	31 c0                	xor    %eax,%eax
  e2:	29 d8                	sub    %ebx,%eax
  e4:	5b                   	pop    %ebx
  e5:	5e                   	pop    %esi
  e6:	5d                   	pop    %ebp
  e7:	c3                   	ret    
  e8:	90                   	nop
  e9:	8d b4 26 00 00 00 00 	lea    0x0(%esi,%eiz,1),%esi

000000f0 <strlen>:
  f0:	55                   	push   %ebp
  f1:	89 e5                	mov    %esp,%ebp
  f3:	8b 4d 08             	mov    0x8(%ebp),%ecx
  f6:	80 39 00             	cmpb   $0x0,(%ecx)
  f9:	74 12                	je     10d <strlen+0x1d>
  fb:	31 d2                	xor    %edx,%edx
  fd:	8d 76 00             	lea    0x0(%esi),%esi
 100:	83 c2 01             	add    $0x1,%edx
 103:	80 3c 11 00          	cmpb   $0x0,(%ecx,%edx,1)
 107:	89 d0                	mov    %edx,%eax
 109:	75 f5                	jne    100 <strlen+0x10>
 10b:	5d                   	pop    %ebp
 10c:	c3                   	ret    
 10d:	31 c0                	xor    %eax,%eax
 10f:	5d                   	pop    %ebp
 110:	c3                   	ret    
 111:	eb 0d                	jmp    120 <memset>
 113:	90                   	nop
 114:	90                   	nop
 115:	90                   	nop
 116:	90                   	nop
 117:	90                   	nop
 118:	90                   	nop
 119:	90                   	nop
 11a:	90                   	nop
 11b:	90                   	nop
 11c:	90                   	nop
 11d:	90                   	nop
 11e:	90                   	nop
 11f:	90                   	nop

00000120 <memset>:
 120:	55                   	push   %ebp
 121:	89 e5                	mov    %esp,%ebp
 123:	57                   	push   %edi
 124:	8b 55 08             	mov    0x8(%ebp),%edx
 127:	8b 4d 10             	mov    0x10(%ebp),%ecx
 12a:	8b 45 0c             	mov    0xc(%ebp),%eax
 12d:	89 d7                	mov    %edx,%edi
 12f:	fc                   	cld    
 130:	f3 aa                	rep stos %al,%es:(%edi)
 132:	89 d0                	mov    %edx,%eax
 134:	5f                   	pop    %edi
 135:	5d                   	pop    %ebp
 136:	c3                   	ret    
 137:	89 f6                	mov    %esi,%esi
 139:	8d bc 27 00 00 00 00 	lea    0x0(%edi,%eiz,1),%edi

00000140 <strchr>:
 140:	55                   	push   %ebp
 141:	89 e5                	mov    %esp,%ebp
 143:	53                   	push   %ebx
 144:	8b 45 08             	mov    0x8(%ebp),%eax
 147:	8b 5d 0c             	mov    0xc(%ebp),%ebx
 14a:	0f b6 10             	movzbl (%eax),%edx
 14d:	84 d2                	test   %dl,%dl
 14f:	74 1d                	je     16e <strchr+0x2e>
 151:	38 d3                	cmp    %dl,%bl
 153:	89 d9                	mov    %ebx,%ecx
 155:	75 0d                	jne    164 <strchr+0x24>
 157:	eb 17                	jmp    170 <strchr+0x30>
 159:	8d b4 26 00 00 00 00 	lea    0x0(%esi,%eiz,1),%esi
 160:	38 ca                	cmp    %cl,%dl
 162:	74 0c                	je     170 <strchr+0x30>
 164:	83 c0 01             	add    $0x1,%eax
 167:	0f b6 10             	movzbl (%eax),%edx
 16a:	84 d2                	test   %dl,%dl
 16c:	75 f2                	jne    160 <strchr+0x20>
 16e:	31 c0                	xor    %eax,%eax
 170:	5b                   	pop    %ebx
 171:	5d                   	pop    %ebp
 172:	c3                   	ret    
 173:	8d b6 00 00 00 00    	lea    0x0(%esi),%esi
 179:	8d bc 27 00 00 00 00 	lea    0x0(%edi,%eiz,1),%edi

00000180 <gets>:
 180:	55                   	push   %ebp
 181:	89 e5                	mov    %esp,%ebp
 183:	57                   	push   %edi
 184:	56                   	push   %esi
 185:	53                   	push   %ebx
 186:	31 f6                	xor    %esi,%esi
 188:	8d 7d e7             	lea    -0x19(%ebp),%edi
 18b:	83 ec 1c             	sub    $0x1c,%esp
 18e:	eb 29                	jmp    1b9 <gets+0x39>
 190:	83 ec 04             	sub    $0x4,%esp
 193:	6a 01                	push   $0x1
 195:	57                   	push   %edi
 196:	6a 00                	push   $0x0
 198:	e8 2d 01 00 00       	call   2ca <read>
 19d:	83 c4 10             	add    $0x10,%esp
 1a0:	85 c0                	test   %eax,%eax
 1a2:	7e 1d                	jle    1c1 <gets+0x41>
 1a4:	0f b6 45 e7          	movzbl -0x19(%ebp),%eax
 1a8:	8b 55 08             	mov    0x8(%ebp),%edx
 1ab:	89 de                	mov    %ebx,%esi
 1ad:	3c 0a                	cmp    $0xa,%al
 1af:	88 44 1a ff          	mov    %al,-0x1(%edx,%ebx,1)
 1b3:	74 1b                	je     1d0 <gets+0x50>
 1b5:	3c 0d                	cmp    $0xd,%al
 1b7:	74 17                	je     1d0 <gets+0x50>
 1b9:	8d 5e 01             	lea    0x1(%esi),%ebx
 1bc:	3b 5d 0c             	cmp    0xc(%ebp),%ebx
 1bf:	7c cf                	jl     190 <gets+0x10>
 1c1:	8b 45 08             	mov    0x8(%ebp),%eax
 1c4:	c6 04 30 00          	movb   $0x0,(%eax,%esi,1)
 1c8:	8d 65 f4             	lea    -0xc(%ebp),%esp
 1cb:	5b                   	pop    %ebx
 1cc:	5e                   	pop    %esi
 1cd:	5f                   	pop    %edi
 1ce:	5d                   	pop    %ebp
 1cf:	c3                   	ret    
 1d0:	8b 45 08             	mov    0x8(%ebp),%eax
 1d3:	89 de                	mov    %ebx,%esi
 1d5:	c6 04 30 00          	movb   $0x0,(%eax,%esi,1)
 1d9:	8d 65 f4             	lea    -0xc(%ebp),%esp
 1dc:	5b                   	pop    %ebx
 1dd:	5e                   	pop    %esi
 1de:	5f                   	pop    %edi
 1df:	5d                   	pop    %ebp
 1e0:	c3                   	ret    
 1e1:	eb 0d                	jmp    1f0 <stat>
 1e3:	90                   	nop
 1e4:	90                   	nop
 1e5:	90                   	nop
 1e6:	90                   	nop
 1e7:	90                   	nop
 1e8:	90                   	nop
 1e9:	90                   	nop
 1ea:	90                   	nop
 1eb:	90                   	nop
 1ec:	90                   	nop
 1ed:	90                   	nop
 1ee:	90                   	nop
 1ef:	90                   	nop

000001f0 <stat>:
 1f0:	55                   	push   %ebp
 1f1:	89 e5                	mov    %esp,%ebp
 1f3:	56                   	push   %esi
 1f4:	53                   	push   %ebx
 1f5:	83 ec 08             	sub    $0x8,%esp
 1f8:	6a 00                	push   $0x0
 1fa:	ff 75 08             	pushl  0x8(%ebp)
 1fd:	e8 f0 00 00 00       	call   2f2 <open>
 202:	83 c4 10             	add    $0x10,%esp
 205:	85 c0                	test   %eax,%eax
 207:	78 27                	js     230 <stat+0x40>
 209:	83 ec 08             	sub    $0x8,%esp
 20c:	ff 75 0c             	pushl  0xc(%ebp)
 20f:	89 c3                	mov    %eax,%ebx
 211:	50                   	push   %eax
 212:	e8 f3 00 00 00       	call   30a <fstat>
 217:	89 c6                	mov    %eax,%esi
 219:	89 1c 24             	mov    %ebx,(%esp)
 21c:	e8 b9 00 00 00       	call   2da <close>
 221:	83 c4 10             	add    $0x10,%esp
 224:	89 f0                	mov    %esi,%eax
 226:	8d 65 f8             	lea    -0x8(%ebp),%esp
 229:	5b                   	pop    %ebx
 22a:	5e                   	pop    %esi
 22b:	5d                   	pop    %ebp
 22c:	c3                   	ret    
 22d:	8d 76 00             	lea    0x0(%esi),%esi
 230:	b8 ff ff ff ff       	mov    $0xffffffff,%eax
 235:	eb ef                	jmp    226 <stat+0x36>
 237:	89 f6                	mov    %esi,%esi
 239:	8d bc 27 00 00 00 00 	lea    0x0(%edi,%eiz,1),%edi

00000240 <atoi>:
 240:	55                   	push   %ebp
 241:	89 e5                	mov    %esp,%ebp
 243:	53                   	push   %ebx
 244:	8b 4d 08             	mov    0x8(%ebp),%ecx
 247:	0f be 11             	movsbl (%ecx),%edx
 24a:	8d 42 d0             	lea    -0x30(%edx),%eax
 24d:	3c 09                	cmp    $0x9,%al
 24f:	b8 00 00 00 00       	mov    $0x0,%eax
 254:	77 1f                	ja     275 <atoi+0x35>
 256:	8d 76 00             	lea    0x0(%esi),%esi
 259:	8d bc 27 00 00 00 00 	lea    0x0(%edi,%eiz,1),%edi
 260:	8d 04 80             	lea    (%eax,%eax,4),%eax
 263:	83 c1 01             	add    $0x1,%ecx
 266:	8d 44 42 d0          	lea    -0x30(%edx,%eax,2),%eax
 26a:	0f be 11             	movsbl (%ecx),%edx
 26d:	8d 5a d0             	lea    -0x30(%edx),%ebx
 270:	80 fb 09             	cmp    $0x9,%bl
 273:	76 eb                	jbe    260 <atoi+0x20>
 275:	5b                   	pop    %ebx
 276:	5d                   	pop    %ebp
 277:	c3                   	ret    
 278:	90                   	nop
 279:	8d b4 26 00 00 00 00 	lea    0x0(%esi,%eiz,1),%esi

00000280 <memmove>:
 280:	55                   	push   %ebp
 281:	89 e5                	mov    %esp,%ebp
 283:	56                   	push   %esi
 284:	53                   	push   %ebx
 285:	8b 5d 10             	mov    0x10(%ebp),%ebx
 288:	8b 45 08             	mov    0x8(%ebp),%eax
 28b:	8b 75 0c             	mov    0xc(%ebp),%esi
 28e:	85 db                	test   %ebx,%ebx
 290:	7e 14                	jle    2a6 <memmove+0x26>
 292:	31 d2                	xor    %edx,%edx
 294:	8d 74 26 00          	lea    0x0(%esi,%eiz,1),%esi
 298:	0f b6 0c 16          	movzbl (%esi,%edx,1),%ecx
 29c:	88 0c 10             	mov    %cl,(%eax,%edx,1)
 29f:	83 c2 01             	add    $0x1,%edx
 2a2:	39 da                	cmp    %ebx,%edx
 2a4:	75 f2                	jne    298 <memmove+0x18>
 2a6:	5b                   	pop    %ebx
 2a7:	5e                   	pop    %esi
 2a8:	5d                   	pop    %ebp
 2a9:	c3                   	ret    

000002aa <fork>:
 2aa:	b8 01 00 00 00       	mov    $0x1,%eax
 2af:	cd 40                	int    $0x40
 2b1:	c3                   	ret    

000002b2 <exit>:
 2b2:	b8 02 00 00 00       	mov    $0x2,%eax
 2b7:	cd 40                	int    $0x40
 2b9:	c3                   	ret    

000002ba <wait>:
 2ba:	b8 03 00 00 00       	mov    $0x3,%eax
 2bf:	cd 40                	int    $0x40
 2c1:	c3                   	ret    

000002c2 <pipe>:
 2c2:	b8 04 00 00 00       	mov    $0x4,%eax
 2c7:	cd 40                	int    $0x40
 2c9:	c3                   	ret    

000002ca <read>:
 2ca:	b8 05 00 00 00       	mov    $0x5,%eax
 2cf:	cd 40                	int    $0x40
 2d1:	c3                   	ret    

000002d2 <write>:
 2d2:	b8 10 00 00 00       	mov    $0x10,%eax
 2d7:	cd 40                	int    $0x40
 2d9:	c3                   	ret    

000002da <close>:
 2da:	b8 15 00 00 00       	mov    $0x15,%eax
 2df:	cd 40                	int    $0x40
 2e1:	c3                   	ret    

000002e2 <kill>:
 2e2:	b8 06 00 00 00       	mov    $0x6,%eax
 2e7:	cd 40                	int    $0x40
 2e9:	c3                   	ret    

000002ea <exec>:
 2ea:	b8 07 00 00 00       	mov    $0x7,%eax
 2ef:	cd 40                	int    $0x40
 2f1:	c3                   	ret    

000002f2 <open>:
 2f2:	b8 0f 00 00 00       	mov    $0xf,%eax
 2f7:	cd 40                	int    $0x40
 2f9:	c3                   	ret    

000002fa <mknod>:
 2fa:	b8 11 00 00 00       	mov    $0x11,%eax
 2ff:	cd 40                	int    $0x40
 301:	c3                   	ret    

00000302 <unlink>:
 302:	b8 12 00 00 00       	mov    $0x12,%eax
 307:	cd 40                	int    $0x40
 309:	c3                   	ret    

0000030a <fstat>:
 30a:	b8 08 00 00 00       	mov    $0x8,%eax
 30f:	cd 40                	int    $0x40
 311:	c3                   	ret    

00000312 <link>:
 312:	b8 13 00 00 00       	mov    $0x13,%eax
 317:	cd 40                	int    $0x40
 319:	c3                   	ret    

0000031a <mkdir>:
 31a:	b8 14 00 00 00       	mov    $0x14,%eax
 31f:	cd 40                	int    $0x40
 321:	c3                   	ret    

00000322 <chdir>:
 322:	b8 09 00 00 00       	mov    $0x9,%eax
 327:	cd 40                	int    $0x40
 329:	c3                   	ret    

0000032a <dup>:
 32a:	b8 0a 00 00 00       	mov    $0xa,%eax
 32f:	cd 40                	int    $0x40
 331:	c3                   	ret    

00000332 <getpid>:
 332:	b8 0b 00 00 00       	mov    $0xb,%eax
 337:	cd 40                	int    $0x40
 339:	c3                   	ret    

0000033a <sbrk>:
 33a:	b8 0c 00 00 00       	mov    $0xc,%eax
 33f:	cd 40                	int    $0x40
 341:	c3                   	ret    

00000342 <sleep>:
 342:	b8 0d 00 00 00       	mov    $0xd,%eax
 347:	cd 40                	int    $0x40
 349:	c3                   	ret    

0000034a <uptime>:
 34a:	b8 0e 00 00 00       	mov    $0xe,%eax
 34f:	cd 40                	int    $0x40
 351:	c3                   	ret    
 352:	66 90                	xchg   %ax,%ax
 354:	66 90                	xchg   %ax,%ax
 356:	66 90                	xchg   %ax,%ax
 358:	66 90                	xchg   %ax,%ax
 35a:	66 90                	xchg   %ax,%ax
 35c:	66 90                	xchg   %ax,%ax
 35e:	66 90                	xchg   %ax,%ax

00000360 <printint>:
 360:	55                   	push   %ebp
 361:	89 e5                	mov    %esp,%ebp
 363:	57                   	push   %edi
 364:	56                   	push   %esi
 365:	53                   	push   %ebx
 366:	89 c6                	mov    %eax,%esi
 368:	83 ec 3c             	sub    $0x3c,%esp
 36b:	8b 5d 08             	mov    0x8(%ebp),%ebx
 36e:	85 db                	test   %ebx,%ebx
 370:	74 7e                	je     3f0 <printint+0x90>
 372:	89 d0                	mov    %edx,%eax
 374:	c1 e8 1f             	shr    $0x1f,%eax
 377:	84 c0                	test   %al,%al
 379:	74 75                	je     3f0 <printint+0x90>
 37b:	89 d0                	mov    %edx,%eax
 37d:	c7 45 c4 01 00 00 00 	movl   $0x1,-0x3c(%ebp)
 384:	f7 d8                	neg    %eax
 386:	89 75 c0             	mov    %esi,-0x40(%ebp)
 389:	31 ff                	xor    %edi,%edi
 38b:	8d 5d d7             	lea    -0x29(%ebp),%ebx
 38e:	89 ce                	mov    %ecx,%esi
 390:	eb 08                	jmp    39a <printint+0x3a>
 392:	8d b6 00 00 00 00    	lea    0x0(%esi),%esi
 398:	89 cf                	mov    %ecx,%edi
 39a:	31 d2                	xor    %edx,%edx
 39c:	8d 4f 01             	lea    0x1(%edi),%ecx
 39f:	f7 f6                	div    %esi
 3a1:	0f b6 92 2c 07 00 00 	movzbl 0x72c(%edx),%edx
 3a8:	85 c0                	test   %eax,%eax
 3aa:	88 14 0b             	mov    %dl,(%ebx,%ecx,1)
 3ad:	75 e9                	jne    398 <printint+0x38>
 3af:	8b 45 c4             	mov    -0x3c(%ebp),%eax
 3b2:	8b 75 c0             	mov    -0x40(%ebp),%esi
 3b5:	85 c0                	test   %eax,%eax
 3b7:	74 08                	je     3c1 <printint+0x61>
 3b9:	c6 44 0d d8 2d       	movb   $0x2d,-0x28(%ebp,%ecx,1)
 3be:	8d 4f 02             	lea    0x2(%edi),%ecx
 3c1:	8d 7c 0d d7          	lea    -0x29(%ebp,%ecx,1),%edi
 3c5:	8d 76 00             	lea    0x0(%esi),%esi
 3c8:	0f b6 07             	movzbl (%edi),%eax
 3cb:	83 ec 04             	sub    $0x4,%esp
 3ce:	83 ef 01             	sub    $0x1,%edi
 3d1:	6a 01                	push   $0x1
 3d3:	53                   	push   %ebx
 3d4:	56                   	push   %esi
 3d5:	88 45 d7             	mov    %al,-0x29(%ebp)
 3d8:	e8 f5 fe ff ff       	call   2d2 <write>
 3dd:	83 c4 10             	add    $0x10,%esp
 3e0:	39 df                	cmp    %ebx,%edi
 3e2:	75 e4                	jne    3c8 <printint+0x68>
 3e4:	8d 65 f4             	lea    -0xc(%ebp),%esp
 3e7:	5b                   	pop    %ebx
 3e8:	5e                   	pop    %esi
 3e9:	5f                   	pop    %edi
 3ea:	5d                   	pop    %ebp
 3eb:	c3                   	ret    
 3ec:	8d 74 26 00          	lea    0x0(%esi,%eiz,1),%esi
 3f0:	89 d0                	mov    %edx,%eax
 3f2:	c7 45 c4 00 00 00 00 	movl   $0x0,-0x3c(%ebp)
 3f9:	eb 8b                	jmp    386 <printint+0x26>
 3fb:	90                   	nop
 3fc:	8d 74 26 00          	lea    0x0(%esi,%eiz,1),%esi

00000400 <printf>:
 400:	55                   	push   %ebp
 401:	89 e5                	mov    %esp,%ebp
 403:	57                   	push   %edi
 404:	56                   	push   %esi
 405:	53                   	push   %ebx
 406:	8d 45 10             	lea    0x10(%ebp),%eax
 409:	83 ec 2c             	sub    $0x2c,%esp
 40c:	8b 75 0c             	mov    0xc(%ebp),%esi
 40f:	8b 7d 08             	mov    0x8(%ebp),%edi
 412:	89 45 d0             	mov    %eax,-0x30(%ebp)
 415:	0f b6 1e             	movzbl (%esi),%ebx
 418:	83 c6 01             	add    $0x1,%esi
 41b:	84 db                	test   %bl,%bl
 41d:	0f 84 b0 00 00 00    	je     4d3 <printf+0xd3>
 423:	31 d2                	xor    %edx,%edx
 425:	eb 39                	jmp    460 <printf+0x60>
 427:	89 f6                	mov    %esi,%esi
 429:	8d bc 27 00 00 00 00 	lea    0x0(%edi,%eiz,1),%edi
 430:	83 f8 25             	cmp    $0x25,%eax
 433:	89 55 d4             	mov    %edx,-0x2c(%ebp)
 436:	ba 25 00 00 00       	mov    $0x25,%edx
 43b:	74 18                	je     455 <printf+0x55>
 43d:	8d 45 e2             	lea    -0x1e(%ebp),%eax
 440:	83 ec 04             	sub    $0x4,%esp
 443:	88 5d e2             	mov    %bl,-0x1e(%ebp)
 446:	6a 01                	push   $0x1
 448:	50                   	push   %eax
 449:	57                   	push   %edi
 44a:	e8 83 fe ff ff       	call   2d2 <write>
 44f:	8b 55 d4             	mov    -0x2c(%ebp),%edx
 452:	83 c4 10             	add    $0x10,%esp
 455:	83 c6 01             	add    $0x1,%esi
 458:	0f b6 5e ff          	movzbl -0x1(%esi),%ebx
 45c:	84 db                	test   %bl,%bl
 45e:	74 73                	je     4d3 <printf+0xd3>
 460:	85 d2                	test   %edx,%edx
 462:	0f be cb             	movsbl %bl,%ecx
 465:	0f b6 c3             	movzbl %bl,%eax
 468:	74 c6                	je     430 <printf+0x30>
 46a:	83 fa 25             	cmp    $0x25,%edx
 46d:	75 e6                	jne    455 <printf+0x55>
 46f:	83 f8 64             	cmp    $0x64,%eax
 472:	0f 84 f8 00 00 00    	je     570 <printf+0x170>
 478:	81 e1 f7 00 00 00    	and    $0xf7,%ecx
 47e:	83 f9 70             	cmp    $0x70,%ecx
 481:	74 5d                	je     4e0 <printf+0xe0>
 483:	83 f8 73             	cmp    $0x73,%eax
 486:	0f 84 84 00 00 00    	je     510 <printf+0x110>
 48c:	83 f8 63             	cmp    $0x63,%eax
 48f:	0f 84 ea 00 00 00    	je     57f <printf+0x17f>
 495:	83 f8 25             	cmp    $0x25,%eax
 498:	0f 84 c2 00 00 00    	je     560 <printf+0x160>
 49e:	8d 45 e7             	lea    -0x19(%ebp),%eax
 4a1:	83 ec 04             	sub    $0x4,%esp
 4a4:	c6 45 e7 25          	movb   $0x25,-0x19(%ebp)
 4a8:	6a 01                	push   $0x1
 4aa:	50                   	push   %eax
 4ab:	57                   	push   %edi
 4ac:	e8 21 fe ff ff       	call   2d2 <write>
 4b1:	83 c4 0c             	add    $0xc,%esp
 4b4:	8d 45 e6             	lea    -0x1a(%ebp),%eax
 4b7:	88 5d e6             	mov    %bl,-0x1a(%ebp)
 4ba:	6a 01                	push   $0x1
 4bc:	50                   	push   %eax
 4bd:	57                   	push   %edi
 4be:	83 c6 01             	add    $0x1,%esi
 4c1:	e8 0c fe ff ff       	call   2d2 <write>
 4c6:	0f b6 5e ff          	movzbl -0x1(%esi),%ebx
 4ca:	83 c4 10             	add    $0x10,%esp
 4cd:	31 d2                	xor    %edx,%edx
 4cf:	84 db                	test   %bl,%bl
 4d1:	75 8d                	jne    460 <printf+0x60>
 4d3:	8d 65 f4             	lea    -0xc(%ebp),%esp
 4d6:	5b                   	pop    %ebx
 4d7:	5e                   	pop    %esi
 4d8:	5f                   	pop    %edi
 4d9:	5d                   	pop    %ebp
 4da:	c3                   	ret    
 4db:	90                   	nop
 4dc:	8d 74 26 00          	lea    0x0(%esi,%eiz,1),%esi
 4e0:	83 ec 0c             	sub    $0xc,%esp
 4e3:	b9 10 00 00 00       	mov    $0x10,%ecx
 4e8:	6a 00                	push   $0x0
 4ea:	8b 5d d0             	mov    -0x30(%ebp),%ebx
 4ed:	89 f8                	mov    %edi,%eax
 4ef:	8b 13                	mov    (%ebx),%edx
 4f1:	e8 6a fe ff ff       	call   360 <printint>
 4f6:	89 d8                	mov    %ebx,%eax
 4f8:	83 c4 10             	add    $0x10,%esp
 4fb:	31 d2                	xor    %edx,%edx
 4fd:	83 c0 04             	add    $0x4,%eax
 500:	89 45 d0             	mov    %eax,-0x30(%ebp)
 503:	e9 4d ff ff ff       	jmp    455 <printf+0x55>
 508:	90                   	nop
 509:	8d b4 26 00 00 00 00 	lea    0x0(%esi,%eiz,1),%esi
 510:	8b 45 d0             	mov    -0x30(%ebp),%eax
 513:	8b 18                	mov    (%eax),%ebx
 515:	83 c0 04             	add    $0x4,%eax
 518:	89 45 d0             	mov    %eax,-0x30(%ebp)
 51b:	b8 23 07 00 00       	mov    $0x723,%eax
 520:	85 db                	test   %ebx,%ebx
 522:	0f 44 d8             	cmove  %eax,%ebx
 525:	0f b6 03             	movzbl (%ebx),%eax
 528:	84 c0                	test   %al,%al
 52a:	74 23                	je     54f <printf+0x14f>
 52c:	8d 74 26 00          	lea    0x0(%esi,%eiz,1),%esi
 530:	88 45 e3             	mov    %al,-0x1d(%ebp)
 533:	8d 45 e3             	lea    -0x1d(%ebp),%eax
 536:	83 ec 04             	sub    $0x4,%esp
 539:	6a 01                	push   $0x1
 53b:	83 c3 01             	add    $0x1,%ebx
 53e:	50                   	push   %eax
 53f:	57                   	push   %edi
 540:	e8 8d fd ff ff       	call   2d2 <write>
 545:	0f b6 03             	movzbl (%ebx),%eax
 548:	83 c4 10             	add    $0x10,%esp
 54b:	84 c0                	test   %al,%al
 54d:	75 e1                	jne    530 <printf+0x130>
 54f:	31 d2                	xor    %edx,%edx
 551:	e9 ff fe ff ff       	jmp    455 <printf+0x55>
 556:	8d 76 00             	lea    0x0(%esi),%esi
 559:	8d bc 27 00 00 00 00 	lea    0x0(%edi,%eiz,1),%edi
 560:	83 ec 04             	sub    $0x4,%esp
 563:	88 5d e5             	mov    %bl,-0x1b(%ebp)
 566:	8d 45 e5             	lea    -0x1b(%ebp),%eax
 569:	6a 01                	push   $0x1
 56b:	e9 4c ff ff ff       	jmp    4bc <printf+0xbc>
 570:	83 ec 0c             	sub    $0xc,%esp
 573:	b9 0a 00 00 00       	mov    $0xa,%ecx
 578:	6a 01                	push   $0x1
 57a:	e9 6b ff ff ff       	jmp    4ea <printf+0xea>
 57f:	8b 5d d0             	mov    -0x30(%ebp),%ebx
 582:	83 ec 04             	sub    $0x4,%esp
 585:	8b 03                	mov    (%ebx),%eax
 587:	6a 01                	push   $0x1
 589:	88 45 e4             	mov    %al,-0x1c(%ebp)
 58c:	8d 45 e4             	lea    -0x1c(%ebp),%eax
 58f:	50                   	push   %eax
 590:	57                   	push   %edi
 591:	e8 3c fd ff ff       	call   2d2 <write>
 596:	e9 5b ff ff ff       	jmp    4f6 <printf+0xf6>
 59b:	66 90                	xchg   %ax,%ax
 59d:	66 90                	xchg   %ax,%ax
 59f:	90                   	nop

000005a0 <free>:
 5a0:	55                   	push   %ebp
 5a1:	a1 d0 09 00 00       	mov    0x9d0,%eax
 5a6:	89 e5                	mov    %esp,%ebp
 5a8:	57                   	push   %edi
 5a9:	56                   	push   %esi
 5aa:	53                   	push   %ebx
 5ab:	8b 5d 08             	mov    0x8(%ebp),%ebx
 5ae:	8b 10                	mov    (%eax),%edx
 5b0:	8d 4b f8             	lea    -0x8(%ebx),%ecx
 5b3:	39 c8                	cmp    %ecx,%eax
 5b5:	73 19                	jae    5d0 <free+0x30>
 5b7:	89 f6                	mov    %esi,%esi
 5b9:	8d bc 27 00 00 00 00 	lea    0x0(%edi,%eiz,1),%edi
 5c0:	39 d1                	cmp    %edx,%ecx
 5c2:	72 1c                	jb     5e0 <free+0x40>
 5c4:	39 d0                	cmp    %edx,%eax
 5c6:	73 18                	jae    5e0 <free+0x40>
 5c8:	89 d0                	mov    %edx,%eax
 5ca:	39 c8                	cmp    %ecx,%eax
 5cc:	8b 10                	mov    (%eax),%edx
 5ce:	72 f0                	jb     5c0 <free+0x20>
 5d0:	39 d0                	cmp    %edx,%eax
 5d2:	72 f4                	jb     5c8 <free+0x28>
 5d4:	39 d1                	cmp    %edx,%ecx
 5d6:	73 f0                	jae    5c8 <free+0x28>
 5d8:	90                   	nop
 5d9:	8d b4 26 00 00 00 00 	lea    0x0(%esi,%eiz,1),%esi
 5e0:	8b 73 fc             	mov    -0x4(%ebx),%esi
 5e3:	8d 3c f1             	lea    (%ecx,%esi,8),%edi
 5e6:	39 d7                	cmp    %edx,%edi
 5e8:	74 19                	je     603 <free+0x63>
 5ea:	89 53 f8             	mov    %edx,-0x8(%ebx)
 5ed:	8b 50 04             	mov    0x4(%eax),%edx
 5f0:	8d 34 d0             	lea    (%eax,%edx,8),%esi
 5f3:	39 f1                	cmp    %esi,%ecx
 5f5:	74 23                	je     61a <free+0x7a>
 5f7:	89 08                	mov    %ecx,(%eax)
 5f9:	a3 d0 09 00 00       	mov    %eax,0x9d0
 5fe:	5b                   	pop    %ebx
 5ff:	5e                   	pop    %esi
 600:	5f                   	pop    %edi
 601:	5d                   	pop    %ebp
 602:	c3                   	ret    
 603:	03 72 04             	add    0x4(%edx),%esi
 606:	89 73 fc             	mov    %esi,-0x4(%ebx)
 609:	8b 10                	mov    (%eax),%edx
 60b:	8b 12                	mov    (%edx),%edx
 60d:	89 53 f8             	mov    %edx,-0x8(%ebx)
 610:	8b 50 04             	mov    0x4(%eax),%edx
 613:	8d 34 d0             	lea    (%eax,%edx,8),%esi
 616:	39 f1                	cmp    %esi,%ecx
 618:	75 dd                	jne    5f7 <free+0x57>
 61a:	03 53 fc             	add    -0x4(%ebx),%edx
 61d:	a3 d0 09 00 00       	mov    %eax,0x9d0
 622:	89 50 04             	mov    %edx,0x4(%eax)
 625:	8b 53 f8             	mov    -0x8(%ebx),%edx
 628:	89 10                	mov    %edx,(%eax)
 62a:	5b                   	pop    %ebx
 62b:	5e                   	pop    %esi
 62c:	5f                   	pop    %edi
 62d:	5d                   	pop    %ebp
 62e:	c3                   	ret    
 62f:	90                   	nop

00000630 <malloc>:
 630:	55                   	push   %ebp
 631:	89 e5                	mov    %esp,%ebp
 633:	57                   	push   %edi
 634:	56                   	push   %esi
 635:	53                   	push   %ebx
 636:	83 ec 0c             	sub    $0xc,%esp
 639:	8b 45 08             	mov    0x8(%ebp),%eax
 63c:	8b 15 d0 09 00 00    	mov    0x9d0,%edx
 642:	8d 78 07             	lea    0x7(%eax),%edi
 645:	c1 ef 03             	shr    $0x3,%edi
 648:	83 c7 01             	add    $0x1,%edi
 64b:	85 d2                	test   %edx,%edx
 64d:	0f 84 a3 00 00 00    	je     6f6 <malloc+0xc6>
 653:	8b 02                	mov    (%edx),%eax
 655:	8b 48 04             	mov    0x4(%eax),%ecx
 658:	39 cf                	cmp    %ecx,%edi
 65a:	76 74                	jbe    6d0 <malloc+0xa0>
 65c:	81 ff 00 10 00 00    	cmp    $0x1000,%edi
 662:	be 00 10 00 00       	mov    $0x1000,%esi
 667:	8d 1c fd 00 00 00 00 	lea    0x0(,%edi,8),%ebx
 66e:	0f 43 f7             	cmovae %edi,%esi
 671:	ba 00 80 00 00       	mov    $0x8000,%edx
 676:	81 ff ff 0f 00 00    	cmp    $0xfff,%edi
 67c:	0f 46 da             	cmovbe %edx,%ebx
 67f:	eb 10                	jmp    691 <malloc+0x61>
 681:	8d b4 26 00 00 00 00 	lea    0x0(%esi,%eiz,1),%esi
 688:	8b 02                	mov    (%edx),%eax
 68a:	8b 48 04             	mov    0x4(%eax),%ecx
 68d:	39 cf                	cmp    %ecx,%edi
 68f:	76 3f                	jbe    6d0 <malloc+0xa0>
 691:	39 05 d0 09 00 00    	cmp    %eax,0x9d0
 697:	89 c2                	mov    %eax,%edx
 699:	75 ed                	jne    688 <malloc+0x58>
 69b:	83 ec 0c             	sub    $0xc,%esp
 69e:	53                   	push   %ebx
 69f:	e8 96 fc ff ff       	call   33a <sbrk>
 6a4:	83 c4 10             	add    $0x10,%esp
 6a7:	83 f8 ff             	cmp    $0xffffffff,%eax
 6aa:	74 1c                	je     6c8 <malloc+0x98>
 6ac:	89 70 04             	mov    %esi,0x4(%eax)
 6af:	83 ec 0c             	sub    $0xc,%esp
 6b2:	83 c0 08             	add    $0x8,%eax
 6b5:	50                   	push   %eax
 6b6:	e8 e5 fe ff ff       	call   5a0 <free>
 6bb:	8b 15 d0 09 00 00    	mov    0x9d0,%edx
 6c1:	83 c4 10             	add    $0x10,%esp
 6c4:	85 d2                	test   %edx,%edx
 6c6:	75 c0                	jne    688 <malloc+0x58>
 6c8:	31 c0                	xor    %eax,%eax
 6ca:	eb 1c                	jmp    6e8 <malloc+0xb8>
 6cc:	8d 74 26 00          	lea    0x0(%esi,%eiz,1),%esi
 6d0:	39 cf                	cmp    %ecx,%edi
 6d2:	74 1c                	je     6f0 <malloc+0xc0>
 6d4:	29 f9                	sub    %edi,%ecx
 6d6:	89 48 04             	mov    %ecx,0x4(%eax)
 6d9:	8d 04 c8             	lea    (%eax,%ecx,8),%eax
 6dc:	89 78 04             	mov    %edi,0x4(%eax)
 6df:	89 15 d0 09 00 00    	mov    %edx,0x9d0
 6e5:	83 c0 08             	add    $0x8,%eax
 6e8:	8d 65 f4             	lea    -0xc(%ebp),%esp
 6eb:	5b                   	pop    %ebx
 6ec:	5e                   	pop    %esi
 6ed:	5f                   	pop    %edi
 6ee:	5d                   	pop    %ebp
 6ef:	c3                   	ret    
 6f0:	8b 08                	mov    (%eax),%ecx
 6f2:	89 0a                	mov    %ecx,(%edx)
 6f4:	eb e9                	jmp    6df <malloc+0xaf>
 6f6:	c7 05 d0 09 00 00 d4 	movl   $0x9d4,0x9d0
 6fd:	09 00 00 
 700:	c7 05 d4 09 00 00 d4 	movl   $0x9d4,0x9d4
 707:	09 00 00 
 70a:	b8 d4 09 00 00       	mov    $0x9d4,%eax
 70f:	c7 05 d8 09 00 00 00 	movl   $0x0,0x9d8
 716:	00 00 00 
 719:	e9 3e ff ff ff       	jmp    65c <malloc+0x2c>
